target datalayout = "e-m:e-p270:32:32-p271:32:32-p272:64:64-i64:64-i128:128-f80:128-n8:16:32:64-S128"
target triple = "x86_64-pc-linux-gnu"

%struct.WebPIDecoder = type { i32, %struct.WebPDecParams, i32, ptr, %struct.VP8Io, %struct.MemBuffer, %struct.WebPDecBuffer, ptr, i64, i32 }
%struct.WebPDecParams = type { ptr, ptr, ptr, ptr, i32, ptr, ptr, ptr, ptr, ptr, ptr, ptr, ptr, ptr }
%struct.VP8Io = type { i32, i32, i32, i32, i32, ptr, ptr, ptr, i32, i32, ptr, ptr, ptr, ptr, i32, i64, ptr, i32, i32, i32, i32, i32, i32, i32, i32, i32, ptr }
%struct.MemBuffer = type { i32, i64, i64, i64, ptr, i64, ptr }
%struct.WebPDecBuffer = type { i32, i32, i32, i32, %union.anon, [4 x i32], ptr }
%union.anon = type { %struct.WebPYUVABuffer }
%struct.WebPYUVABuffer = type { ptr, ptr, ptr, ptr, i32, i32, i32, i32, i64, i64, i64, i64 }

; Function Attrs: inlinehint nounwind uwtable
define internal i32 @VP8InitIo(ptr noundef %0) #3 {
  %2 = alloca ptr, align 8
  store ptr %0, ptr %2, align 8, !tbaa !73
  %3 = load ptr, ptr %2, align 8, !tbaa !73
  %4 = call i32 @VP8InitIoInternal(ptr noundef %3, i32 noundef 528)
  ret i32 %4
}

; Function Attrs: inlinehint nounwind uwtable
define internal i32 @WebPInitDecBuffer(ptr noundef %0) #3 {
  %2 = alloca ptr, align 8
  store ptr %0, ptr %2, align 8, !tbaa !3
  %3 = load ptr, ptr %2, align 8, !tbaa !3
  %4 = call i32 @WebPInitDecBufferInternal(ptr noundef %3, i32 noundef 528)
  ret i32 %4
}

; Function Attrs: nounwind uwtable
define internal void @InitMemBuffer(ptr noundef %0) #0 {
  %2 = alloca ptr, align 8
  store ptr %0, ptr %2, align 8, !tbaa !35
  %3 = load ptr, ptr %2, align 8, !tbaa !35
  %4 = getelementptr inbounds nuw %struct.MemBuffer, ptr %3, i32 0, i32 0
  store i32 0, ptr %4, align 8, !tbaa !36
  %5 = load ptr, ptr %2, align 8, !tbaa !35
  %6 = getelementptr inbounds nuw %struct.MemBuffer, ptr %5, i32 0, i32 4
  store ptr null, ptr %6, align 8, !tbaa !37
  %7 = load ptr, ptr %2, align 8, !tbaa !35
  %8 = getelementptr inbounds nuw %struct.MemBuffer, ptr %7, i32 0, i32 3
  store i64 0, ptr %8, align 8, !tbaa !60
  %9 = load ptr, ptr %2, align 8, !tbaa !35
  %10 = getelementptr inbounds nuw %struct.MemBuffer, ptr %9, i32 0, i32 6
  store ptr null, ptr %10, align 8, !tbaa !38
  %11 = load ptr, ptr %2, align 8, !tbaa !35
  %12 = getelementptr inbounds nuw %struct.MemBuffer, ptr %11, i32 0, i32 5
  store i64 0, ptr %12, align 8, !tbaa !72
  ret void
}

; Function Attrs: nounwind uwtable
define internal ptr @NewDecoder(ptr noundef %0, ptr noundef %1) #0 {
  %3 = alloca ptr, align 8
  %4 = alloca ptr, align 8
  %5 = alloca ptr, align 8
  %6 = alloca ptr, align 8
  %7 = alloca i32, align 4
  store ptr %0, ptr %4, align 8, !tbaa !3
  store ptr %1, ptr %5, align 8, !tbaa !8
  call void @llvm.lifetime.start.p0(i64 8, ptr %6) #6
  %8 = call ptr @WebPSafeCalloc(i64 noundef 1, i64 noundef 496)
  store ptr %8, ptr %6, align 8, !tbaa !10
  %9 = load ptr, ptr %6, align 8, !tbaa !10
  %10 = icmp eq ptr %9, null
  br i1 %10, label %11, label %12

11:                                               ; preds = %2
  store ptr null, ptr %3, align 8
  store i32 1, ptr %7, align 4
  br label %76

12:                                               ; preds = %2
  %13 = load ptr, ptr %6, align 8, !tbaa !10
  %14 = getelementptr inbounds nuw %struct.WebPIDecoder, ptr %13, i32 0, i32 0
  store i32 0, ptr %14, align 8, !tbaa !12
  %15 = load ptr, ptr %6, align 8, !tbaa !10
  %16 = getelementptr inbounds nuw %struct.WebPIDecoder, ptr %15, i32 0, i32 8
  store i64 0, ptr %16, align 8, !tbaa !23
  %17 = load ptr, ptr %6, align 8, !tbaa !10
  %18 = getelementptr inbounds nuw %struct.WebPIDecoder, ptr %17, i32 0, i32 9
  store i32 -1, ptr %18, align 8, !tbaa !24
  %19 = load ptr, ptr %6, align 8, !tbaa !10
  %20 = getelementptr inbounds nuw %struct.WebPIDecoder, ptr %19, i32 0, i32 5
  call void @InitMemBuffer(ptr noundef %20)
  %21 = load ptr, ptr %6, align 8, !tbaa !10
  %22 = getelementptr inbounds nuw %struct.WebPIDecoder, ptr %21, i32 0, i32 6
  %23 = call i32 @WebPInitDecBuffer(ptr noundef %22)
  %24 = icmp ne i32 %23, 0
  br i1 %24, label %25, label %30

25:                                               ; preds = %12
  %26 = load ptr, ptr %6, align 8, !tbaa !10
  %27 = getelementptr inbounds nuw %struct.WebPIDecoder, ptr %26, i32 0, i32 4
  %28 = call i32 @VP8InitIo(ptr noundef %27)
  %29 = icmp ne i32 %28, 0
  br i1 %29, label %32, label %30

30:                                               ; preds = %25, %12
  %31 = load ptr, ptr %6, align 8, !tbaa !10
  call void @WebPSafeFree(ptr noundef %31)
  store ptr null, ptr %3, align 8
  store i32 1, ptr %7, align 4
  br label %76

32:                                               ; preds = %25
  %33 = load ptr, ptr %6, align 8, !tbaa !10
  %34 = getelementptr inbounds nuw %struct.WebPIDecoder, ptr %33, i32 0, i32 1
  call void @WebPResetDecParams(ptr noundef %34)
  %35 = load ptr, ptr %4, align 8, !tbaa !3
  %36 = icmp eq ptr %35, null
  br i1 %36, label %42, label %37

37:                                               ; preds = %32
  %38 = load ptr, ptr %4, align 8, !tbaa !3
  %39 = load ptr, ptr %5, align 8, !tbaa !8
  %40 = call i32 @WebPAvoidSlowMemory(ptr noundef %38, ptr noundef %39)
  %41 = icmp ne i32 %40, 0
  br i1 %41, label %42, label %63

42:                                               ; preds = %37, %32
  %43 = load ptr, ptr %6, align 8, !tbaa !10
  %44 = getelementptr inbounds nuw %struct.WebPIDecoder, ptr %43, i32 0, i32 6
  %45 = load ptr, ptr %6, align 8, !tbaa !10
  %46 = getelementptr inbounds nuw %struct.WebPIDecoder, ptr %45, i32 0, i32 1
  %47 = getelementptr inbounds nuw %struct.WebPDecParams, ptr %46, i32 0, i32 0
  store ptr %44, ptr %47, align 8, !tbaa !25
  %48 = load ptr, ptr %4, align 8, !tbaa !3
  %49 = load ptr, ptr %6, align 8, !tbaa !10
  %50 = getelementptr inbounds nuw %struct.WebPIDecoder, ptr %49, i32 0, i32 7
  store ptr %48, ptr %50, align 8, !tbaa !26
  %51 = load ptr, ptr %4, align 8, !tbaa !3
  %52 = icmp ne ptr %51, null
  br i1 %52, label %53, label %62

53:                                               ; preds = %42
  %54 = load ptr, ptr %4, align 8, !tbaa !3
  %55 = getelementptr inbounds nuw %struct.WebPDecBuffer, ptr %54, i32 0, i32 0
  %56 = load i32, ptr %55, align 8, !tbaa !27
  %57 = load ptr, ptr %6, align 8, !tbaa !10
  %58 = getelementptr inbounds nuw %struct.WebPIDecoder, ptr %57, i32 0, i32 1
  %59 = getelementptr inbounds nuw %struct.WebPDecParams, ptr %58, i32 0, i32 0
  %60 = load ptr, ptr %59, align 8, !tbaa !25
  %61 = getelementptr inbounds nuw %struct.WebPDecBuffer, ptr %60, i32 0, i32 0
  store i32 %56, ptr %61, align 8, !tbaa !27
  br label %62

62:                                               ; preds = %53, %42
  br label %70

63:                                               ; preds = %37
  %64 = load ptr, ptr %4, align 8, !tbaa !3
  %65 = load ptr, ptr %6, align 8, !tbaa !10
  %66 = getelementptr inbounds nuw %struct.WebPIDecoder, ptr %65, i32 0, i32 1
  %67 = getelementptr inbounds nuw %struct.WebPDecParams, ptr %66, i32 0, i32 0
  store ptr %64, ptr %67, align 8, !tbaa !25
  %68 = load ptr, ptr %6, align 8, !tbaa !10
  %69 = getelementptr inbounds nuw %struct.WebPIDecoder, ptr %68, i32 0, i32 7
  store ptr null, ptr %69, align 8, !tbaa !26
  br label %70

70:                                               ; preds = %63, %62
  %71 = load ptr, ptr %6, align 8, !tbaa !10
  %72 = getelementptr inbounds nuw %struct.WebPIDecoder, ptr %71, i32 0, i32 1
  %73 = load ptr, ptr %6, align 8, !tbaa !10
  %74 = getelementptr inbounds nuw %struct.WebPIDecoder, ptr %73, i32 0, i32 4
  call void @WebPInitCustomIo(ptr noundef %72, ptr noundef %74)
  %75 = load ptr, ptr %6, align 8, !tbaa !10
  store ptr %75, ptr %3, align 8
  store i32 1, ptr %7, align 4
  br label %76

76:                                               ; preds = %70, %30, %11
  call void @llvm.lifetime.end.p0(i64 8, ptr %6) #6
  %77 = load ptr, ptr %3, align 8
  ret ptr %77
}