; Function Attrs: nounwind uwtable
define internal fastcc ptr @NewDecoder(ptr noundef %0, ptr noundef %1) unnamed_addr #0 {
  %3 = tail call ptr @WebPSafeCalloc(i64 noundef 1, i64 noundef 496) #7
  %4 = icmp eq ptr %3, null
  br i1 %4, label %27, label %5

5:                                                ; preds = %2
  store i32 0, ptr %3, align 8, !tbaa !3
  %6 = getelementptr inbounds nuw i8, ptr %3, i64 480
  store i64 0, ptr %6, align 8, !tbaa !18
  %7 = getelementptr inbounds nuw i8, ptr %3, i64 488
  store i32 -1, ptr %7, align 8, !tbaa !19
  %8 = getelementptr inbounds nuw i8, ptr %3, i64 296
  store i32 0, ptr %8, align 8, !tbaa !20
  %9 = getelementptr inbounds nuw i8, ptr %3, i64 320
  tail call void @llvm.memset.p0.i64(ptr noundef nonnull align 8 dereferenceable(32) %9, i8 0, i64 32, i1 false)
  %10 = getelementptr inbounds nuw i8, ptr %3, i64 352
  %11 = tail call i32 @WebPInitDecBufferInternal(ptr noundef nonnull %10, i32 noundef 528) #7
  %.not = icmp eq i32 %11, 0
  br i1 %.not, label %15, label %12

12:                                               ; preds = %5
  %13 = getelementptr inbounds nuw i8, ptr %3, i64 136
  %14 = tail call i32 @VP8InitIoInternal(ptr noundef nonnull %13, i32 noundef 528) #7
  %.not28 = icmp eq i32 %14, 0
  br i1 %.not28, label %15, label %16

15:                                               ; preds = %12, %5
  tail call void @WebPSafeFree(ptr noundef nonnull %3) #7
  br label %27

16:                                               ; preds = %12
  %17 = getelementptr inbounds nuw i8, ptr %3, i64 8
  tail call void @WebPResetDecParams(ptr noundef nonnull %17) #7
  %18 = icmp eq ptr %0, null
  br i1 %18, label %.thread, label %20

.thread:                                          ; preds = %16
  store ptr %10, ptr %17, align 8, !tbaa !21
  %19 = getelementptr inbounds nuw i8, ptr %3, i64 472
  store ptr null, ptr %19, align 8, !tbaa !22
  br label %26

20:                                               ; preds = %16
  %21 = tail call i32 @WebPAvoidSlowMemory(ptr noundef nonnull %0, ptr noundef %1) #7
  %.not29 = icmp eq i32 %21, 0
  %22 = getelementptr inbounds nuw i8, ptr %3, i64 472
  br i1 %.not29, label %25, label %23

23:                                               ; preds = %20
  store ptr %10, ptr %17, align 8, !tbaa !21
  store ptr %0, ptr %22, align 8, !tbaa !22
  %24 = load i32, ptr %0, align 8, !tbaa !23
  store i32 %24, ptr %10, align 8, !tbaa !23
  br label %26

25:                                               ; preds = %20
  store ptr %0, ptr %17, align 8, !tbaa !21
  store ptr null, ptr %22, align 8, !tbaa !22
  br label %26

26:                                               ; preds = %.thread, %23, %25
  tail call void @WebPInitCustomIo(ptr noundef nonnull %17, ptr noundef nonnull %13) #7
  br label %27

27:                                               ; preds = %2, %26, %15
  %.0 = phi ptr [ %3, %26 ], [ null, %15 ], [ null, %2 ]
  ret ptr %.0
}